target datalayout = "e-m:e-p270:32:32-p271:32:32-p272:64:64-i64:64-i128:128-f80:128-n8:16:32:64-S128"
target triple = "x86_64-pc-linux-gnu"

%struct.OSQPVectorf_ = type { ptr, i64 }
%struct.OSQPVectori_ = type { ptr, i64 }

; Function Attrs: nounwind uwtable
define void @OSQPVectorf_set_scalar_conditional(ptr noundef %0, ptr noundef %1, double noundef %2, double noundef %3, double noundef %4) #0 {
  %6 = alloca ptr, align 8
  %7 = alloca ptr, align 8
  %8 = alloca double, align 8
  %9 = alloca double, align 8
  %10 = alloca double, align 8
  %11 = alloca i64, align 8
  %12 = alloca i64, align 8
  %13 = alloca ptr, align 8
  %14 = alloca ptr, align 8
  store ptr %0, ptr %6, align 8
  store ptr %1, ptr %7, align 8
  store double %2, ptr %8, align 8
  store double %3, ptr %9, align 8
  store double %4, ptr %10, align 8
  %15 = load ptr, ptr %6, align 8
  %16 = getelementptr inbounds %struct.OSQPVectorf_, ptr %15, i32 0, i32 1
  %17 = load i64, ptr %16, align 8
  store i64 %17, ptr %12, align 8
  %18 = load ptr, ptr %6, align 8
  %19 = getelementptr inbounds %struct.OSQPVectorf_, ptr %18, i32 0, i32 0
  %20 = load ptr, ptr %19, align 8
  store ptr %20, ptr %13, align 8
  %21 = load ptr, ptr %7, align 8
  %22 = getelementptr inbounds %struct.OSQPVectori_, ptr %21, i32 0, i32 0
  %23 = load ptr, ptr %22, align 8
  store ptr %23, ptr %14, align 8
  store i64 0, ptr %11, align 8
  br label %24

24:                                               ; preds = %57, %5
  %25 = load i64, ptr %11, align 8
  %26 = load i64, ptr %12, align 8
  %27 = icmp slt i64 %25, %26
  br i1 %27, label %28, label %60

28:                                               ; preds = %24
  %29 = load ptr, ptr %14, align 8
  %30 = load i64, ptr %11, align 8
  %31 = getelementptr inbounds i64, ptr %29, i64 %30
  %32 = load i64, ptr %31, align 8
  %33 = icmp eq i64 %32, 0
  br i1 %33, label %34, label %39

34:                                               ; preds = %28
  %35 = load double, ptr %9, align 8
  %36 = load ptr, ptr %13, align 8
  %37 = load i64, ptr %11, align 8
  %38 = getelementptr inbounds double, ptr %36, i64 %37
  store double %35, ptr %38, align 8
  br label %56

39:                                               ; preds = %28
  %40 = load ptr, ptr %14, align 8
  %41 = load i64, ptr %11, align 8
  %42 = getelementptr inbounds i64, ptr %40, i64 %41
  %43 = load i64, ptr %42, align 8
  %44 = icmp sgt i64 %43, 0
  br i1 %44, label %45, label %50

45:                                               ; preds = %39
  %46 = load double, ptr %10, align 8
  %47 = load ptr, ptr %13, align 8
  %48 = load i64, ptr %11, align 8
  %49 = getelementptr inbounds double, ptr %47, i64 %48
  store double %46, ptr %49, align 8
  br label %55

50:                                               ; preds = %39
  %51 = load double, ptr %8, align 8
  %52 = load ptr, ptr %13, align 8
  %53 = load i64, ptr %11, align 8
  %54 = getelementptr inbounds double, ptr %52, i64 %53
  store double %51, ptr %54, align 8
  br label %55

55:                                               ; preds = %50, %45
  br label %56

56:                                               ; preds = %55, %34
  br label %57

57:                                               ; preds = %56
  %58 = load i64, ptr %11, align 8
  %59 = add nsw i64 %58, 1
  store i64 %59, ptr %11, align 8
  br label %24, !llvm.loop !18

60:                                               ; preds = %24
  ret void
}