; Function Attrs: nofree norecurse nosync nounwind memory(readwrite, inaccessiblemem: none) uwtable
define void @OSQPVectorf_set_scalar_conditional(ptr nocapture noundef readonly %0, ptr nocapture noundef readonly %1, double noundef %2, double noundef %3, double noundef %4) local_unnamed_addr #7 {
  %6 = getelementptr inbounds i8, ptr %0, i64 8
  %7 = load i64, ptr %6, align 8
  %8 = load ptr, ptr %0, align 8
  %9 = load ptr, ptr %1, align 8
  %10 = icmp sgt i64 %7, 0
  br i1 %10, label %.lr.ph, label %._crit_edge

.lr.ph:                                           ; preds = %5, %21
  %.019 = phi i64 [ %22, %21 ], [ 0, %5 ]
  %11 = getelementptr inbounds i64, ptr %9, i64 %.019
  %12 = load i64, ptr %11, align 8
  %13 = icmp eq i64 %12, 0
  br i1 %13, label %14, label %16

14:                                               ; preds = %.lr.ph
  %15 = getelementptr inbounds double, ptr %8, i64 %.019
  store double %3, ptr %15, align 8
  br label %21

16:                                               ; preds = %.lr.ph
  %17 = icmp sgt i64 %12, 0
  %18 = getelementptr inbounds double, ptr %8, i64 %.019
  br i1 %17, label %19, label %20

19:                                               ; preds = %16
  store double %4, ptr %18, align 8
  br label %21

20:                                               ; preds = %16
  store double %2, ptr %18, align 8
  br label %21

21:                                               ; preds = %14, %20, %19
  %22 = add nuw nsw i64 %.019, 1
  %exitcond.not = icmp eq i64 %22, %7
  br i1 %exitcond.not, label %._crit_edge, label %.lr.ph, !llvm.loop !18

._crit_edge:                                      ; preds = %21, %5
  ret void
}